target datalayout = "e-m:e-p270:32:32-p271:32:32-p272:64:64-i64:64-i128:128-f80:128-n8:16:32:64-S128"
target triple = "x86_64-pc-linux-gnu"

%"class.clang::TemplateArgument" = type { %union.anon.34 }
%union.anon.34 = type { %"struct.clang::TemplateArgument::DA" }
%"struct.clang::TemplateArgument::DA" = type { i32, ptr, ptr }
%"struct.llvm::detail::PunnedPointer.16" = type { [8 x i8] }
%"class.clang::QualType" = type { %"class.llvm::PointerIntPair.9" }
%"class.llvm::PointerIntPair.9" = type { %"struct.llvm::detail::PunnedPointer.10" }
%"struct.llvm::detail::PunnedPointer.10" = type { [8 x i8] }
%"class.llvm::FoldingSetBase::Node" = type { ptr }
%"class.llvm::ArrayRef" = type { ptr, i64 }
%"class.(anonymous namespace)::ODRTypeVisitor" = type { ptr, ptr }
%"class.clang::TemplateName" = type { %"class.llvm::PointerUnion.26" }
%"class.llvm::PointerUnion.26" = type { %"class.llvm::pointer_union_detail::PointerUnionMembers.27" }
%"class.llvm::pointer_union_detail::PointerUnionMembers.27" = type { %"class.llvm::pointer_union_detail::PointerUnionMembers.28" }
%"class.llvm::pointer_union_detail::PointerUnionMembers.28" = type { %"class.llvm::pointer_union_detail::PointerUnionMembers.29" }
%"class.llvm::pointer_union_detail::PointerUnionMembers.29" = type { %"class.llvm::pointer_union_detail::PointerUnionMembers.30" }
%"class.llvm::pointer_union_detail::PointerUnionMembers.30" = type { %"class.llvm::pointer_union_detail::PointerUnionMembers.31" }
%"class.llvm::pointer_union_detail::PointerUnionMembers.31" = type { %"class.llvm::PointerIntPair.32" }
%"class.llvm::PointerIntPair.32" = type { %"struct.llvm::detail::PunnedPointer.16" }
%"class.clang::ExtQualsTypeCommonBase" = type { ptr, %"class.clang::QualType" }
%"class.clang::Type" = type { %"class.clang::ExtQualsTypeCommonBase", %union.anon.122, [8 x i8] }
%union.anon.122 = type { %"class.clang::Type::FunctionTypeBitfields" }
%"class.clang::Type::FunctionTypeBitfields" = type { i64 }
%"class.clang::Type.base" = type { %"class.clang::ExtQualsTypeCommonBase", %union.anon.122 }
%"class.clang::TemplateSpecializationType" = type { %"class.clang::Type.base", %"class.llvm::FoldingSetBase::Node", %"class.clang::TemplateName", [8 x i8] }
%"class.clang::Type::TemplateSpecializationTypeBitfields" = type { i32, i32 }

; Function Attrs: mustprogress nounwind uwtable
define linkonce_odr hidden void @_ZN4llvm8ArrayRefIN5clang16TemplateArgumentEEC2EPKS2_m(ptr noundef nonnull align 8 dereferenceable(16) %0, ptr noundef %1, i64 noundef %2) unnamed_addr #0 comdat align 2 {
  %4 = alloca ptr, align 8
  %5 = alloca ptr, align 8
  %6 = alloca i64, align 8
  store ptr %0, ptr %4, align 8
  store ptr %1, ptr %5, align 8
  store i64 %2, ptr %6, align 8
  %7 = load ptr, ptr %4, align 8
  %8 = getelementptr inbounds nuw %"class.llvm::ArrayRef", ptr %7, i32 0, i32 0
  %9 = load ptr, ptr %5, align 8
  store ptr %9, ptr %8, align 8
  %10 = getelementptr inbounds nuw %"class.llvm::ArrayRef", ptr %7, i32 0, i32 1
  %11 = load i64, ptr %6, align 8
  store i64 %11, ptr %10, align 8
  ret void
}

; Function Attrs: mustprogress nounwind uwtable
define internal void @_ZN12_GLOBAL__N_114ODRTypeVisitor9VisitTypeEPKN5clang4TypeE(ptr noundef nonnull align 8 dereferenceable(16) %0, ptr noundef %1) #0 align 2 {
  %3 = alloca ptr, align 8
  %4 = alloca ptr, align 8
  store ptr %0, ptr %3, align 8
  store ptr %1, ptr %4, align 8
  ret void
}

; Function Attrs: mustprogress nounwind uwtable
define linkonce_odr hidden i64 @_ZNK5clang26TemplateSpecializationType15getTemplateNameEv(ptr noundef nonnull align 16 dereferenceable(40) %0) #0 comdat align 2 {
  %2 = alloca %"class.clang::TemplateName", align 8
  %3 = alloca ptr, align 8
  store ptr %0, ptr %3, align 8
  %4 = load ptr, ptr %3, align 8
  %5 = getelementptr inbounds nuw %"class.clang::TemplateSpecializationType", ptr %4, i32 0, i32 2
  call void @llvm.memcpy.p0.p0.i64(ptr align 8 %2, ptr align 16 %5, i64 8, i1 false)
  %6 = getelementptr inbounds nuw %"class.clang::TemplateName", ptr %2, i32 0, i32 0
  %7 = getelementptr inbounds nuw %"class.llvm::PointerUnion.26", ptr %6, i32 0, i32 0
  %8 = getelementptr inbounds nuw %"class.llvm::pointer_union_detail::PointerUnionMembers.27", ptr %7, i32 0, i32 0
  %9 = getelementptr inbounds nuw %"class.llvm::pointer_union_detail::PointerUnionMembers.28", ptr %8, i32 0, i32 0
  %10 = getelementptr inbounds nuw %"class.llvm::pointer_union_detail::PointerUnionMembers.29", ptr %9, i32 0, i32 0
  %11 = getelementptr inbounds nuw %"class.llvm::pointer_union_detail::PointerUnionMembers.30", ptr %10, i32 0, i32 0
  %12 = getelementptr inbounds nuw %"class.llvm::pointer_union_detail::PointerUnionMembers.31", ptr %11, i32 0, i32 0
  %13 = getelementptr inbounds nuw %"class.llvm::PointerIntPair.32", ptr %12, i32 0, i32 0
  %14 = getelementptr inbounds nuw %"struct.llvm::detail::PunnedPointer.16", ptr %13, i32 0, i32 0
  %15 = load i64, ptr %14, align 8
  ret i64 %15
}

; Function Attrs: mustprogress nounwind uwtable
define linkonce_odr hidden noundef ptr @_ZNK4llvm8ArrayRefIN5clang16TemplateArgumentEE3endEv(ptr noundef nonnull align 8 dereferenceable(16) %0) #0 comdat align 2 {
  %2 = alloca ptr, align 8
  store ptr %0, ptr %2, align 8
  %3 = load ptr, ptr %2, align 8
  %4 = getelementptr inbounds nuw %"class.llvm::ArrayRef", ptr %3, i32 0, i32 0
  %5 = load ptr, ptr %4, align 8
  %6 = getelementptr inbounds nuw %"class.llvm::ArrayRef", ptr %3, i32 0, i32 1
  %7 = load i64, ptr %6, align 8
  %8 = getelementptr inbounds %"class.clang::TemplateArgument", ptr %5, i64 %7
  ret ptr %8
}

; Function Attrs: mustprogress nounwind uwtable
define linkonce_odr hidden noundef ptr @_ZNK4llvm8ArrayRefIN5clang16TemplateArgumentEE5beginEv(ptr noundef nonnull align 8 dereferenceable(16) %0) #0 comdat align 2 {
  %2 = alloca ptr, align 8
  store ptr %0, ptr %2, align 8
  %3 = load ptr, ptr %2, align 8
  %4 = getelementptr inbounds nuw %"class.llvm::ArrayRef", ptr %3, i32 0, i32 0
  %5 = load ptr, ptr %4, align 8
  ret ptr %5
}

; Function Attrs: mustprogress nounwind uwtable
define linkonce_odr hidden void @_ZN4llvm16FoldingSetNodeID10AddIntegerEm(ptr noundef nonnull align 8 dereferenceable(144) %0, i64 noundef %1) #0 comdat align 2 {
  %3 = alloca ptr, align 8
  %4 = alloca i64, align 8
  store ptr %0, ptr %3, align 8
  store i64 %1, ptr %4, align 8
  %5 = load ptr, ptr %3, align 8
  %6 = load i64, ptr %4, align 8
  call void @_ZN4llvm16FoldingSetNodeID10AddIntegerEy(ptr noundef nonnull align 8 dereferenceable(144) %5, i64 noundef %6)
  ret void
}

; Function Attrs: mustprogress nounwind uwtable
define linkonce_odr hidden noundef i64 @_ZNK4llvm8ArrayRefIN5clang16TemplateArgumentEE4sizeEv(ptr noundef nonnull align 8 dereferenceable(16) %0) #0 comdat align 2 {
  %2 = alloca ptr, align 8
  store ptr %0, ptr %2, align 8
  %3 = load ptr, ptr %2, align 8
  %4 = getelementptr inbounds nuw %"class.llvm::ArrayRef", ptr %3, i32 0, i32 1
  %5 = load i64, ptr %4, align 8
  ret i64 %5
}

; Function Attrs: mustprogress nounwind uwtable
define linkonce_odr hidden { ptr, i64 } @_ZNK5clang26TemplateSpecializationType18template_argumentsEv(ptr noundef nonnull align 16 dereferenceable(40) %0) #0 comdat align 2 {
  %2 = alloca %"class.llvm::ArrayRef", align 8
  %3 = alloca ptr, align 8
  store ptr %0, ptr %3, align 8
  %4 = load ptr, ptr %3, align 8
  %5 = getelementptr inbounds %"class.clang::TemplateSpecializationType", ptr %4, i64 1
  %6 = getelementptr inbounds nuw %"class.clang::Type", ptr %4, i32 0, i32 1
  %7 = getelementptr inbounds nuw %"class.clang::Type::TemplateSpecializationTypeBitfields", ptr %6, i32 0, i32 1
  %8 = load i32, ptr %7, align 4
  %9 = zext i32 %8 to i64
  call void @_ZN4llvm8ArrayRefIN5clang16TemplateArgumentEEC2EPKS2_m(ptr noundef nonnull align 8 dereferenceable(16) %2, ptr noundef %5, i64 noundef %9)
  %10 = load { ptr, i64 }, ptr %2, align 8
  ret { ptr, i64 } %10
}

; Function Attrs: mustprogress nounwind uwtable
define internal void @_ZN12_GLOBAL__N_114ODRTypeVisitor31VisitTemplateSpecializationTypeEPKN5clang26TemplateSpecializationTypeE(ptr noundef nonnull align 8 dereferenceable(16) %0, ptr noundef %1) #0 align 2 {
  %3 = alloca ptr, align 8
  %4 = alloca ptr, align 8
  %5 = alloca %"class.llvm::ArrayRef", align 8
  %6 = alloca ptr, align 8
  %7 = alloca %"class.llvm::ArrayRef", align 8
  %8 = alloca ptr, align 8
  %9 = alloca ptr, align 8
  %10 = alloca ptr, align 8
  %11 = alloca %"class.clang::TemplateArgument", align 8
  %12 = alloca %"class.clang::TemplateName", align 8
  store ptr %0, ptr %3, align 8
  store ptr %1, ptr %4, align 8
  %13 = load ptr, ptr %3, align 8
  %14 = getelementptr inbounds nuw %"class.(anonymous namespace)::ODRTypeVisitor", ptr %13, i32 0, i32 0
  %15 = load ptr, ptr %14, align 8
  %16 = load ptr, ptr %4, align 8
  %17 = call { ptr, i64 } @_ZNK5clang26TemplateSpecializationType18template_argumentsEv(ptr noundef nonnull align 16 dereferenceable(40) %16)
  %18 = getelementptr inbounds nuw { ptr, i64 }, ptr %5, i32 0, i32 0
  %19 = extractvalue { ptr, i64 } %17, 0
  store ptr %19, ptr %18, align 8
  %20 = getelementptr inbounds nuw { ptr, i64 }, ptr %5, i32 0, i32 1
  %21 = extractvalue { ptr, i64 } %17, 1
  store i64 %21, ptr %20, align 8
  %22 = call noundef i64 @_ZNK4llvm8ArrayRefIN5clang16TemplateArgumentEE4sizeEv(ptr noundef nonnull align 8 dereferenceable(16) %5)
  call void @_ZN4llvm16FoldingSetNodeID10AddIntegerEm(ptr noundef nonnull align 8 dereferenceable(144) %15, i64 noundef %22)
  %23 = load ptr, ptr %4, align 8
  %24 = call { ptr, i64 } @_ZNK5clang26TemplateSpecializationType18template_argumentsEv(ptr noundef nonnull align 16 dereferenceable(40) %23)
  %25 = getelementptr inbounds nuw { ptr, i64 }, ptr %7, i32 0, i32 0
  %26 = extractvalue { ptr, i64 } %24, 0
  store ptr %26, ptr %25, align 8
  %27 = getelementptr inbounds nuw { ptr, i64 }, ptr %7, i32 0, i32 1
  %28 = extractvalue { ptr, i64 } %24, 1
  store i64 %28, ptr %27, align 8
  store ptr %7, ptr %6, align 8
  %29 = load ptr, ptr %6, align 8
  %30 = call noundef ptr @_ZNK4llvm8ArrayRefIN5clang16TemplateArgumentEE5beginEv(ptr noundef nonnull align 8 dereferenceable(16) %29)
  store ptr %30, ptr %8, align 8
  %31 = load ptr, ptr %6, align 8
  %32 = call noundef ptr @_ZNK4llvm8ArrayRefIN5clang16TemplateArgumentEE3endEv(ptr noundef nonnull align 8 dereferenceable(16) %31)
  store ptr %32, ptr %9, align 8
  br label %33

33:                                               ; preds = %42, %2
  %34 = load ptr, ptr %8, align 8
  %35 = load ptr, ptr %9, align 8
  %36 = icmp ne ptr %34, %35
  br i1 %36, label %37, label %45

37:                                               ; preds = %33
  %38 = load ptr, ptr %8, align 8
  store ptr %38, ptr %10, align 8
  %39 = getelementptr inbounds nuw %"class.(anonymous namespace)::ODRTypeVisitor", ptr %13, i32 0, i32 1
  %40 = load ptr, ptr %39, align 8
  %41 = load ptr, ptr %10, align 8
  call void @llvm.memcpy.p0.p0.i64(ptr align 8 %11, ptr align 8 %41, i64 24, i1 false)
  call void @_ZN5clang7ODRHash19AddTemplateArgumentENS_16TemplateArgumentE(ptr noundef nonnull align 8 dereferenceable(320) %40, ptr noundef byval(%"class.clang::TemplateArgument") align 8 %11)
  br label %42

42:                                               ; preds = %37
  %43 = load ptr, ptr %8, align 8
  %44 = getelementptr inbounds %"class.clang::TemplateArgument", ptr %43, i32 1
  store ptr %44, ptr %8, align 8
  br label %33

45:                                               ; preds = %33
  %46 = getelementptr inbounds nuw %"class.(anonymous namespace)::ODRTypeVisitor", ptr %13, i32 0, i32 1
  %47 = load ptr, ptr %46, align 8
  %48 = load ptr, ptr %4, align 8
  %49 = call i64 @_ZNK5clang26TemplateSpecializationType15getTemplateNameEv(ptr noundef nonnull align 16 dereferenceable(40) %48)
  %50 = getelementptr inbounds nuw %"class.clang::TemplateName", ptr %12, i32 0, i32 0
  %51 = getelementptr inbounds nuw %"class.llvm::PointerUnion.26", ptr %50, i32 0, i32 0
  %52 = getelementptr inbounds nuw %"class.llvm::pointer_union_detail::PointerUnionMembers.27", ptr %51, i32 0, i32 0
  %53 = getelementptr inbounds nuw %"class.llvm::pointer_union_detail::PointerUnionMembers.28", ptr %52, i32 0, i32 0
  %54 = getelementptr inbounds nuw %"class.llvm::pointer_union_detail::PointerUnionMembers.29", ptr %53, i32 0, i32 0
  %55 = getelementptr inbounds nuw %"class.llvm::pointer_union_detail::PointerUnionMembers.30", ptr %54, i32 0, i32 0
  %56 = getelementptr inbounds nuw %"class.llvm::pointer_union_detail::PointerUnionMembers.31", ptr %55, i32 0, i32 0
  %57 = getelementptr inbounds nuw %"class.llvm::PointerIntPair.32", ptr %56, i32 0, i32 0
  %58 = getelementptr inbounds nuw %"struct.llvm::detail::PunnedPointer.16", ptr %57, i32 0, i32 0
  store i64 %49, ptr %58, align 8
  %59 = getelementptr inbounds nuw %"class.clang::TemplateName", ptr %12, i32 0, i32 0
  %60 = getelementptr inbounds nuw %"class.llvm::PointerUnion.26", ptr %59, i32 0, i32 0
  %61 = getelementptr inbounds nuw %"class.llvm::pointer_union_detail::PointerUnionMembers.27", ptr %60, i32 0, i32 0
  %62 = getelementptr inbounds nuw %"class.llvm::pointer_union_detail::PointerUnionMembers.28", ptr %61, i32 0, i32 0
  %63 = getelementptr inbounds nuw %"class.llvm::pointer_union_detail::PointerUnionMembers.29", ptr %62, i32 0, i32 0
  %64 = getelementptr inbounds nuw %"class.llvm::pointer_union_detail::PointerUnionMembers.30", ptr %63, i32 0, i32 0
  %65 = getelementptr inbounds nuw %"class.llvm::pointer_union_detail::PointerUnionMembers.31", ptr %64, i32 0, i32 0
  %66 = getelementptr inbounds nuw %"class.llvm::PointerIntPair.32", ptr %65, i32 0, i32 0
  %67 = getelementptr inbounds nuw %"struct.llvm::detail::PunnedPointer.16", ptr %66, i32 0, i32 0
  %68 = load i64, ptr %67, align 8
  call void @_ZN5clang7ODRHash15AddTemplateNameENS_12TemplateNameE(ptr noundef nonnull align 8 dereferenceable(320) %47, i64 %68)
  %69 = load ptr, ptr %4, align 8
  call void @_ZN12_GLOBAL__N_114ODRTypeVisitor9VisitTypeEPKN5clang4TypeE(ptr noundef nonnull align 8 dereferenceable(16) %13, ptr noundef %69)
  ret void
}