; Function Attrs: mustprogress nounwind uwtable
define internal fastcc void @_ZN12_GLOBAL__N_114ODRTypeVisitor31VisitTemplateSpecializationTypeEPKN5clang26TemplateSpecializationTypeE(ptr noundef nonnull readonly align 8 captures(none) dereferenceable(16) %0, ptr noundef readonly %1) unnamed_addr #0 align 2 {
  %3 = load ptr, ptr %0, align 8
  %4 = getelementptr inbounds nuw i8, ptr %1, i64 20
  %5 = load i32, ptr %4, align 4
  %6 = zext i32 %5 to i64
  tail call void @_ZN4llvm16FoldingSetNodeID10AddIntegerEy(ptr noundef nonnull align 8 dereferenceable(144) %3, i64 noundef %6)
  %7 = load i32, ptr %4, align 4
  %8 = zext i32 %7 to i64
  %.idx = mul nuw nsw i64 %8, 24
  %9 = getelementptr inbounds nuw i8, ptr %1, i64 %.idx
  %.ptr18 = getelementptr inbounds nuw i8, ptr %9, i64 48
  %.not16 = icmp eq i32 %7, 0
  br i1 %.not16, label %._crit_edge, label %.lr.ph

.lr.ph:                                           ; preds = %2
  %.ptr = getelementptr inbounds nuw i8, ptr %1, i64 48
  %10 = getelementptr inbounds nuw i8, ptr %0, i64 8
  br label %11

11:                                               ; preds = %.lr.ph, %11
  %.017 = phi ptr [ %.ptr, %.lr.ph ], [ %13, %11 ]
  %12 = load ptr, ptr %10, align 8
  tail call void @_ZN5clang7ODRHash19AddTemplateArgumentENS_16TemplateArgumentE(ptr noundef nonnull align 8 dereferenceable(320) %12, ptr noundef nonnull byval(%"class.clang::TemplateArgument") align 8 %.017)
  %13 = getelementptr inbounds nuw i8, ptr %.017, i64 24
  %.not = icmp eq ptr %13, %.ptr18
  br i1 %.not, label %._crit_edge, label %11

._crit_edge:                                      ; preds = %11, %2
  %14 = getelementptr inbounds nuw i8, ptr %0, i64 8
  %15 = load ptr, ptr %14, align 8
  %16 = getelementptr inbounds nuw i8, ptr %1, i64 32
  %.sroa.0.0.copyload.i = load i64, ptr %16, align 16
  tail call void @_ZN5clang7ODRHash15AddTemplateNameENS_12TemplateNameE(ptr noundef nonnull align 8 dereferenceable(320) %15, i64 %.sroa.0.0.copyload.i)
  ret void
}